; Function Attrs: mustprogress nounwind uwtable
define hidden void @_ZN11ZRemembered8FoundOld13register_pageEP5ZPage(ptr nocapture noundef nonnull readonly align 8 dereferenceable(68) %0, ptr nocapture noundef readonly %1) local_unnamed_addr #0 align 2 {
  %3 = getelementptr inbounds i8, ptr %0, i64 48
  %4 = getelementptr inbounds i8, ptr %0, i64 64
  %5 = load i32, ptr %4, align 8
  %6 = sext i32 %5 to i64
  %7 = getelementptr inbounds [2 x ptr], ptr %3, i64 0, i64 %6
  %8 = load ptr, ptr %7, align 8
  %9 = getelementptr inbounds i8, ptr %1, i64 16
  %10 = load i64, ptr %9, align 8
  %11 = lshr i64 %10, 21
  %12 = load ptr, ptr %8, align 8
  %13 = lshr i64 %10, 27
  %14 = getelementptr inbounds i64, ptr %12, i64 %13
  %15 = and i64 %11, 63
  %16 = shl nuw i64 1, %15
  %17 = load volatile i64, ptr %14, align 8
  br label %18

18:                                               ; preds = %20, %2
  %.017.i = phi i64 [ %17, %2 ], [ %21, %20 ]
  %19 = or i64 %.017.i, %16
  %.not.i.not = icmp eq i64 %19, %.017.i
  br i1 %.not.i.not, label %_ZN6BitMap11par_set_bitEm19atomic_memory_order.exit, label %20

20:                                               ; preds = %18
  %21 = tail call noundef i64 asm sideeffect "lock cmpxchgq $1,($3)", "={ax},r,{ax},r,~{cc},~{memory},~{dirflag},~{fpsr},~{flags}"(i64 %19, i64 %.017.i, ptr nonnull %14) #13, !srcloc !8
  %22 = icmp eq i64 %21, %.017.i
  br i1 %22, label %_ZN6BitMap11par_set_bitEm19atomic_memory_order.exit, label %18, !llvm.loop !9

_ZN6BitMap11par_set_bitEm19atomic_memory_order.exit: ; preds = %18, %20
  ret void
}